; Function Attrs: nounwind uwtable
define hidden void @SDL_SetMouseName(i32 noundef %0, ptr noundef %1) local_unnamed_addr #0 {
  %3 = load i32, ptr @SDL_mouse_count, align 4
  %.not9.i = icmp sgt i32 %3, 0
  br i1 %.not9.i, label %.lr.ph.i, label %SDL_GetMouseIndex.exit.thread

.lr.ph.i:                                         ; preds = %2
  %4 = load ptr, ptr @SDL_mice, align 8
  %wide.trip.count.i = zext nneg i32 %3 to i64
  br label %5

5:                                                ; preds = %9, %.lr.ph.i
  %indvars.iv.i = phi i64 [ 0, %.lr.ph.i ], [ %indvars.iv.next.i, %9 ]
  %6 = getelementptr inbounds nuw %struct.SDL_MouseInstance, ptr %4, i64 %indvars.iv.i
  %7 = load i32, ptr %6, align 8
  %8 = icmp eq i32 %0, %7
  br i1 %8, label %SDL_GetMouseIndex.exit, label %9

9:                                                ; preds = %5
  %indvars.iv.next.i = add nuw nsw i64 %indvars.iv.i, 1
  %exitcond.not.i = icmp eq i64 %indvars.iv.next.i, %wide.trip.count.i
  br i1 %exitcond.not.i, label %SDL_GetMouseIndex.exit.thread, label %5, !llvm.loop !7

SDL_GetMouseIndex.exit:                           ; preds = %5
  %10 = and i64 %indvars.iv.i, 4294967295
  %11 = getelementptr inbounds nuw %struct.SDL_MouseInstance, ptr %4, i64 %10, i32 1
  %12 = load ptr, ptr %11, align 8
  tail call void @SDL_free_REAL(ptr noundef %12) #13
  %.not = icmp eq ptr %1, null
  %13 = select i1 %.not, ptr @.str.15, ptr %1
  %14 = tail call noalias ptr @SDL_strdup_REAL(ptr noundef nonnull %13) #13
  store ptr %14, ptr %11, align 8
  br label %SDL_GetMouseIndex.exit.thread

SDL_GetMouseIndex.exit.thread:                    ; preds = %9, %2, %SDL_GetMouseIndex.exit
  ret void
}